target datalayout = "e-m:e-p270:32:32-p271:32:32-p272:64:64-i64:64-i128:128-f80:128-n8:16:32:64-S128"
target triple = "x86_64-pc-linux-gnu"

%"struct.Luau::TypePackVar" = type { %"class.Luau::Variant", i8, ptr }
%"class.Luau::Variant" = type { i32, [4 x i8], [64 x i8] }
%"struct.Luau::Unifiable::Bound" = type { ptr }

; Function Attrs: mustprogress uwtable
define linkonce_odr dso_local noundef ptr @_ZN4Luau5visitIRKNS_26TypePackRehydrationVisitorEJNS_9Unifiable5BoundIPKNS_11TypePackVarEEENS4_5ErrorIS8_EENS_12FreeTypePackENS_15GenericTypePackENS_8TypePackENS_16VariadicTypePackENS_15BlockedTypePackENS_28TypeFunctionInstanceTypePackEEEEDaOT_RKNS_7VariantIJDpT0_EEE(ptr noundef nonnull align 8 dereferenceable(24) %0, ptr noundef nonnull align 8 dereferenceable(72) %1) #2 comdat {
  %3 = alloca ptr, align 8
  %4 = alloca ptr, align 8
  %5 = alloca ptr, align 8
  store ptr %0, ptr %3, align 8, !tbaa !29
  store ptr %1, ptr %4, align 8, !tbaa !37
  call void @llvm.lifetime.start.p0(i64 8, ptr %5) #19
  %6 = load ptr, ptr %4, align 8, !tbaa !37
  %7 = getelementptr inbounds nuw %"class.Luau::Variant", ptr %6, i32 0, i32 0
  %8 = load i32, ptr %7, align 8, !tbaa !39
  %9 = sext i32 %8 to i64
  %10 = getelementptr inbounds [8 x ptr], ptr @_ZZN4Luau5visitIRKNS_26TypePackRehydrationVisitorEJNS_9Unifiable5BoundIPKNS_11TypePackVarEEENS4_5ErrorIS8_EENS_12FreeTypePackENS_15GenericTypePackENS_8TypePackENS_16VariadicTypePackENS_15BlockedTypePackENS_28TypeFunctionInstanceTypePackEEEEDaOT_RKNS_7VariantIJDpT0_EEEE10tableVisit_0, i64 0, i64 %9
  %11 = load ptr, ptr %10, align 8, !tbaa !41
  %12 = load ptr, ptr %3, align 8, !tbaa !29
  %13 = load ptr, ptr %4, align 8, !tbaa !37
  %14 = getelementptr inbounds nuw %"class.Luau::Variant", ptr %13, i32 0, i32 2
  call void %11(ptr noundef nonnull align 8 dereferenceable(24) %12, ptr noundef nonnull align 8 dereferenceable(8) %5, ptr noundef %14)
  %15 = load ptr, ptr %5, align 8, !tbaa !42
  call void @llvm.lifetime.end.p0(i64 8, ptr %5) #19
  ret ptr %15
}

; Function Attrs: mustprogress uwtable
define linkonce_odr dso_local noundef ptr @_ZNK4Luau26TypePackRehydrationVisitorclERKNS_9Unifiable5BoundIPKNS_11TypePackVarEEE(ptr noundef nonnull align 8 dereferenceable(24) %0, ptr noundef nonnull align 8 dereferenceable(8) %1) #2 comdat align 2 {
  %3 = alloca ptr, align 8
  %4 = alloca ptr, align 8
  store ptr %0, ptr %3, align 8, !tbaa !29
  store ptr %1, ptr %4, align 8, !tbaa !117
  %5 = load ptr, ptr %3, align 8
  %6 = load ptr, ptr %4, align 8, !tbaa !117
  %7 = getelementptr inbounds nuw %"struct.Luau::Unifiable::Bound", ptr %6, i32 0, i32 0
  %8 = load ptr, ptr %7, align 8, !tbaa !119
  %9 = getelementptr inbounds nuw %"struct.Luau::TypePackVar", ptr %8, i32 0, i32 0
  %10 = call noundef ptr @_ZN4Luau5visitIRKNS_26TypePackRehydrationVisitorEJNS_9Unifiable5BoundIPKNS_11TypePackVarEEENS4_5ErrorIS8_EENS_12FreeTypePackENS_15GenericTypePackENS_8TypePackENS_16VariadicTypePackENS_15BlockedTypePackENS_28TypeFunctionInstanceTypePackEEEEDaOT_RKNS_7VariantIJDpT0_EEE(ptr noundef nonnull align 8 dereferenceable(24) %5, ptr noundef nonnull align 8 dereferenceable(72) %9)
  ret ptr %10
}

; Function Attrs: mustprogress uwtable
define internal void @_ZN4LuauL8fnVisitRIRNS_26TypePackRehydrationVisitorEPNS_11AstTypePackEKNS_9Unifiable5BoundIPKNS_11TypePackVarEEEEEvRT_RT0_PNSt11conditionalIXsr3stdE10is_const_vIT1_EEKvvE4typeE(ptr noundef nonnull align 8 dereferenceable(24) %0, ptr noundef nonnull align 8 dereferenceable(8) %1, ptr noundef %2) #2 {
  %4 = alloca ptr, align 8
  %5 = alloca ptr, align 8
  %6 = alloca ptr, align 8
  store ptr %0, ptr %4, align 8, !tbaa !29
  store ptr %1, ptr %5, align 8, !tbaa !115
  store ptr %2, ptr %6, align 8, !tbaa !41
  %7 = load ptr, ptr %4, align 8, !tbaa !29
  %8 = load ptr, ptr %6, align 8, !tbaa !41
  %9 = call noundef ptr @_ZNK4Luau26TypePackRehydrationVisitorclERKNS_9Unifiable5BoundIPKNS_11TypePackVarEEE(ptr noundef nonnull align 8 dereferenceable(24) %7, ptr noundef nonnull align 8 dereferenceable(8) %8)
  %10 = load ptr, ptr %5, align 8, !tbaa !115
  store ptr %9, ptr %10, align 8, !tbaa !42
  ret void
}